; Function Attrs: mustprogress nofree norecurse nosync nounwind willreturn memory(write, argmem: readwrite, inaccessiblemem: none) uwtable
define hidden range(i32 -108, 3) i32 @mbedtls_asn1_write_null(ptr noundef captures(none) %0, ptr noundef %1) local_unnamed_addr #1 {
  %3 = load ptr, ptr %0, align 8, !tbaa !5
  %4 = ptrtoint ptr %3 to i64
  %5 = ptrtoint ptr %1 to i64
  %6 = sub i64 %4, %5
  %7 = icmp slt i64 %6, 1
  br i1 %7, label %mbedtls_asn1_write_len_and_tag.exit, label %.preheader.i.i

.preheader.i.i:                                   ; preds = %2
  %8 = getelementptr inbounds i8, ptr %3, i64 -1
  store ptr %8, ptr %0, align 8, !tbaa !5
  store i8 0, ptr %8, align 1, !tbaa !10
  %9 = load ptr, ptr %0, align 8, !tbaa !5
  %10 = ptrtoint ptr %9 to i64
  %11 = sub i64 %10, %5
  %12 = icmp slt i64 %11, 1
  br i1 %12, label %mbedtls_asn1_write_len_and_tag.exit, label %13

13:                                               ; preds = %.preheader.i.i
  %14 = getelementptr inbounds i8, ptr %9, i64 -1
  store ptr %14, ptr %0, align 8, !tbaa !5
  store i8 5, ptr %14, align 1, !tbaa !10
  br label %mbedtls_asn1_write_len_and_tag.exit

mbedtls_asn1_write_len_and_tag.exit:              ; preds = %2, %.preheader.i.i, %13
  %.0.i = phi i32 [ 2, %13 ], [ -108, %2 ], [ -108, %.preheader.i.i ]
  ret i32 %.0.i
}